Certificate:
    Data:
        Version: 3 (0x2)
        Serial Number: 311 (0x137)
        Signature Algorithm: sha1WithRSAEncryption
        Issuer: C=US, ST=NY, L=Islandia, O=Identity Management, OU=Provisioning Services
        Validity
            Not Before: Nov 28 08:26:01 2007 GMT
            Not After : Nov 25 08:26:01 2017 GMT
        Subject: C=US, ST=NY, O=Identity Management, OU=Provisioning Services, CN=eta_server
        Subject Public Key Info:
            Public Key Algorithm: rsaEncryption
            RSA Public Key: (1024 bit)
                Modulus (1024 bit):
                    00:a7:c3:32:4b:10:78:1f:95:03:33:02:18:c5:85:
                    97:ad:7b:05:1a:eb:66:5d:16:3c:0c:c2:8e:de:46:
                    b8:f1:3b:71:e1:1d:b5:01:e1:e1:52:a3:6d:9a:69:
                    f6:ef:6b:c9:24:51:08:40:b0:42:89:92:71:40:c5:
                    67:e7:a8:cc:02:19:e5:6b:d4:93:c2:00:c0:5f:bb:
                    a8:9e:c6:9e:40:70:f6:b0:4b:67:b2:b3:55:9b:68:
                    a3:3d:1d:1f:8a:c4:85:7d:55:d2:3c:b9:52:e3:c7:
                    cc:2f:d8:69:c8:f1:49:1d:ea:cc:cf:a3:54:5a:65:
                    39:76:e1:97:d5:31:15:ce:b1
                Exponent: 65537 (0x10001)
        X509v3 extensions:
            X509v3 Basic Constraints: 
                CA:FALSE
            Netscape Comment: 
                OpenSSL Generated Certificate
            X509v3 Subject Key Identifier: 
                C9:95:12:5C:AB:8B:24:BA:75:0A:E8:02:1C:26:9F:D4:BE:0C:6B:D5
            X509v3 Authority Key Identifier: 
                keyid:12:33:6A:D1:DA:16:03:2D:28:73:7D:04:39:61:70:F0:C8:A4:7E:77
                DirName:/C=US/ST=NY/L=Islandia/O=Identity Management/OU=Provisioning Services
                serial:D2:F4:1B:E5:CA:82:22:A8

    Signature Algorithm: sha1WithRSAEncryption
        92:ff:03:38:aa:0a:de:0e:1e:6e:ae:2d:d6:2f:72:5f:0e:48:
        37:8d:b8:0f:b6:0d:ea:3d:f4:eb:d5:48:20:ec:ca:3f:39:86:
        d8:d6:22:b9:88:dc:82:95:e0:10:0c:35:79:7b:fb:d1:74:3f:
        62:b0:ba:16:ff:6c:83:fc:07:53:ea:00:39:46:91:f4:42:6c:
        b2:56:15:44:d7:3c:a3:78:cd:93:46:a1:c8:bd:dd:f3:21:11:
        1d:67:1e:95:ec:4c:c2:86:70:30:0e:72:43:3c:98:53:82:18:
        06:ed:1d:63:48:c1:81:b9:dc:5d:65:51:c5:66:44:8c:8a:48:
        6d:10
-----BEGIN CERTIFICATE-----
MIIDSzCCArSgAwIBAgICATcwDQYJKoZIhvcNAQEFBQAwazELMAkGA1UEBhMCVVMx
CzAJBgNVBAgTAk5ZMREwDwYDVQQHEwhJc2xhbmRpYTEcMBoGA1UEChMTSWRlbnRp
dHkgTWFuYWdlbWVudDEeMBwGA1UECxMVUHJvdmlzaW9uaW5nIFNlcnZpY2VzMB4X
DTA3MTEyODA4MjYwMVoXDTE3MTEyNTA4MjYwMVowbTELMAkGA1UEBhMCVVMxCzAJ
BgNVBAgTAk5ZMRwwGgYDVQQKExNJZGVudGl0eSBNYW5hZ2VtZW50MR4wHAYDVQQL
ExVQcm92aXNpb25pbmcgU2VydmljZXMxEzARBgNVBAMUCmV0YV9zZXJ2ZXIwgZ8w
DQYJKoZIhvcNAQEBBQADgY0AMIGJAoGBAKfDMksQeB+VAzMCGMWFl617BRrrZl0W
PAzCjt5GuPE7ceEdtQHh4VKjbZpp9u9rySRRCECwQomScUDFZ+eozAIZ5WvUk8IA
wF+7qJ7GnkBw9rBLZ7KzVZtooz0dH4rEhX1V0jy5UuPHzC/YacjxSR3qzM+jVFpl
OXbhl9UxFc6xAgMBAAGjgfswgfgwCQYDVR0TBAIwADAsBglghkgBhvhCAQ0EHxYd
T3BlblNTTCBHZW5lcmF0ZWQgQ2VydGlmaWNhdGUwHQYDVR0OBBYEFMmVElyriyS6
dQroAhwmn9S+DGvVMIGdBgNVHSMEgZUwgZKAFBIzatHaFgMtKHN9BDlhcPDIpH53
oW+kbTBrMQswCQYDVQQGEwJVUzELMAkGA1UECBMCTlkxETAPBgNVBAcTCElzbGFu
ZGlhMRwwGgYDVQQKExNJZGVudGl0eSBNYW5hZ2VtZW50MR4wHAYDVQQLExVQcm92
aXNpb25pbmcgU2VydmljZXOCCQDS9BvlyoIiqDANBgkqhkiG9w0BAQUFAAOBgQCS
/wM4qgreDh5uri3WL3JfDkg3jbgPtg3qPfTr1Ugg7Mo/OYbY1iK5iNyCleAQDDV5
e/vRdD9isLoW/2yD/AdT6gA5RpH0QmyyVhVE1zyjeM2TRqHIvd3zIREdZx6V7EzC
hnAwDnJDPJhTghgG7R1jSMGBudxdZVHFZkSMikhtEA==
-----END CERTIFICATE-----
-----BEGIN RSA PRIVATE KEY-----
MIICXQIBAAKBgQCnwzJLEHgflQMzAhjFhZetewUa62ZdFjwMwo7eRrjxO3HhHbUB
4eFSo22aafbva8kkUQhAsEKJknFAxWfnqMwCGeVr1JPCAMBfu6iexp5AcPawS2ey
s1WbaKM9HR+KxIV9VdI8uVLjx8wv2GnI8Ukd6szPo1RaZTl24ZfVMRXOsQIDAQAB
AoGAMJkaM6aUtclsANXFqUqW8tllVDQHFkY/pQ6jZn6kSrWGusjpS59Mr6zKLmYt
85OM1ClpM5wb2lCC4FmPTQuX9Td7lelAegMezwKZDDlsAGptXFwI/SNA7clqiD1k
cwI5EmZJdw5LPzoA4baOJROkjKkap1PB20w5avhQSOEA5/ECQQDewf1aPq7+Q869
C9f/IrsA5cAu3dpPrfVi//INEjbHhNwVRUy9O3EOmjMPs4xWaTPegzUIYRJ5Vrc+
HPtCeuKNAkEAwMw5G+xdaH96LHHinjeoJAEK9BStdyOKwIbAZBBKCpENWeckmpUT
GkfuJcvNmtbZQ8H/68Xdb0EAXfOFHJpltQJAPOfvnMAs2qqxmTDm0wSs+tbW0Dmq
mkSnJnVyui4zuiPShSJYlBjvlZ2FvpJKGcpT+1AGrQ7VnUWffqUv8gJldQJBAIzZ
JaeWqC7dYl3x3UMFGhsjf+MM8CUnnAhG6Wqw08agbYaObJlZ6xi6D+sg1tYVu6fa
pKKUbM8IR8JbU5Wv3jkCQQCmvILW/foXhX18set6hWRtgVNr3aGCHwcENdgUKgPs
EjQX24OVQUQl4fo+4rhlWxeHfJLEPEjeTpXyVjeiMx08
-----END RSA PRIVATE KEY-----
