Certificate:
    Data:
        Version: 1 (0x0)
        Serial Number:
            c7:5c:85:25:4a:14:b0:e5
        Signature Algorithm: sha1WithRSAEncryption
        Issuer: C=AU, O=DXadmin, CN=Certificate Authority
        Validity
            Not Before: Feb 21 01:18:22 2012 GMT
            Not After : Feb 21 01:18:22 2027 GMT
        Subject: C=AU, O=DXadmin, CN=Certificate Authority
        Subject Public Key Info:
            Public Key Algorithm: rsaEncryption
            RSA Public Key: (1024 bit)
                Modulus (1024 bit):
                    00:d6:96:a4:30:e2:79:aa:79:13:4c:b7:0e:12:f8:
                    e8:be:20:c4:ef:89:43:26:e9:f1:a4:01:52:88:ea:
                    cf:e2:fb:4f:50:a3:a2:47:07:89:d9:30:54:64:44:
                    52:8e:5e:1b:cd:b9:e0:8c:7c:0e:a7:52:57:6c:19:
                    02:9b:dd:ba:9b:30:e9:e4:aa:16:ac:7d:bb:c4:92:
                    52:bc:98:03:b9:dd:64:5c:e2:ed:7c:00:25:ad:aa:
                    fe:a2:b7:36:a3:96:e2:13:4d:a1:be:c2:60:7d:04:
                    1c:f3:0c:33:44:ad:49:96:71:53:da:6d:3d:8d:ac:
                    1e:61:f6:ff:b5:26:10:d8:af
                Exponent: 65537 (0x10001)
    Signature Algorithm: sha1WithRSAEncryption
        a9:56:ac:85:9f:a6:da:7f:d6:5b:3e:67:06:0e:79:e2:a0:05:
        f0:2c:28:d8:37:87:fd:be:c2:77:06:7e:fa:41:13:d7:db:67:
        3b:45:d7:62:06:bc:e0:fc:d2:fc:8a:2e:04:7a:ed:e3:56:f9:
        b0:1f:72:e6:24:77:56:80:f0:33:9c:ac:f3:d5:6c:11:b5:ff:
        3e:b9:8b:fb:e0:b1:76:f7:14:5a:5e:32:0d:9e:26:0e:f4:eb:
        be:ad:51:34:ab:dc:aa:04:fd:fb:0d:aa:40:c8:60:8f:09:ea:
        da:b0:e5:b0:ca:38:d0:34:fa:49:f6:f8:97:5a:49:41:e9:dc:
        f0:1d
-----BEGIN CERTIFICATE-----
MIIB9TCCAV4CCQDHXIUlShSw5TANBgkqhkiG9w0BAQUFADA/MQswCQYDVQQGEwJB
VTEQMA4GA1UEChMHRFhhZG1pbjEeMBwGA1UEAxMVQ2VydGlmaWNhdGUgQXV0aG9y
aXR5MB4XDTEyMDIyMTAxMTgyMloXDTI3MDIyMTAxMTgyMlowPzELMAkGA1UEBhMC
QVUxEDAOBgNVBAoTB0RYYWRtaW4xHjAcBgNVBAMTFUNlcnRpZmljYXRlIEF1dGhv
cml0eTCBnzANBgkqhkiG9w0BAQEFAAOBjQAwgYkCgYEA1pakMOJ5qnkTTLcOEvjo
viDE74lDJunxpAFSiOrP4vtPUKOiRweJ2TBUZERSjl4bzbngjHwOp1JXbBkCm926
mzDp5KoWrH27xJJSvJgDud1kXOLtfAAlrar+orc2o5biE02hvsJgfQQc8wwzRK1J
lnFT2m09jaweYfb/tSYQ2K8CAwEAATANBgkqhkiG9w0BAQUFAAOBgQCpVqyFn6ba
f9ZbPmcGDnnioAXwLCjYN4f9vsJ3Bn76QRPX22c7RddiBrzg/NL8ii4Eeu3jVvmw
H3LmJHdWgPAznKzz1WwRtf8+uYv74LF29xRaXjINniYO9Ou+rVE0q9yqBP37DapA
yGCPCerasOWwyjjQNPpJ9viXWklB6dzwHQ==
-----END CERTIFICATE-----
