Certificate:
    Data:
        Version: 1 (0x0)
        Serial Number: 1 (0x1)
        Signature Algorithm: md5WithRSAEncryption
        Issuer: C=AU, O=DXadmin, CN=Certificate Authority
        Validity
            Not Before: Feb 21 01:18:22 2012 GMT
            Not After : Feb 21 01:18:22 2027 GMT
        Subject: C=AU, O=CA, CN=DXadmin
        Subject Public Key Info:
            Public Key Algorithm: rsaEncryption
            RSA Public Key: (1024 bit)
                Modulus (1024 bit):
                    00:f4:e7:e4:45:21:52:98:eb:e6:b7:a9:a3:d5:63:
                    21:c6:14:2a:cd:a8:ea:7f:6c:a9:79:a4:18:0f:85:
                    87:e9:0a:12:c8:6a:74:42:ca:03:2f:48:56:d5:35:
                    a0:3c:3c:ed:4e:65:97:9d:b8:fb:95:fd:ac:17:b3:
                    75:07:82:88:52:44:6c:4d:78:0a:20:66:48:ed:d7:
                    a7:0d:53:57:73:1a:27:cd:9e:7b:07:da:97:eb:de:
                    68:6f:c8:6d:73:6d:d3:9d:ec:4e:c9:7d:3b:28:27:
                    2a:e9:5e:05:2d:59:22:86:68:e2:27:06:26:b7:9c:
                    fa:e2:93:d6:53:ab:b4:73:ed
                Exponent: 65537 (0x10001)
    Signature Algorithm: md5WithRSAEncryption
        ca:ad:94:28:42:0f:5a:3b:4f:22:26:35:6a:ab:ee:61:c8:ff:
        a5:4f:da:1a:e5:13:26:ea:fe:99:47:d6:f4:86:63:4e:ae:9a:
        a1:36:65:fb:e4:99:eb:35:3f:84:8f:b4:f0:6c:ba:9b:be:3f:
        51:d5:3e:11:1b:1e:2f:7f:ae:52:44:a5:17:14:b9:4d:fd:7e:
        7a:8e:c2:08:2c:75:66:c0:7e:7a:ab:90:d4:5f:fa:f7:84:04:
        53:64:cb:da:a7:d0:95:3d:06:b5:f7:5f:cf:9d:b6:4c:ba:55:
        79:01:9b:36:ff:95:52:36:0f:56:ca:26:47:de:02:3f:99:91:
        9f:ae
-----BEGIN CERTIFICATE-----
MIIB2jCCAUMCAQEwDQYJKoZIhvcNAQEEBQAwPzELMAkGA1UEBhMCQVUxEDAOBgNV
BAoTB0RYYWRtaW4xHjAcBgNVBAMTFUNlcnRpZmljYXRlIEF1dGhvcml0eTAeFw0x
MjAyMjEwMTE4MjJaFw0yNzAyMjEwMTE4MjJaMCwxCzAJBgNVBAYTAkFVMQswCQYD
VQQKEwJDQTEQMA4GA1UEAxMHRFhhZG1pbjCBnzANBgkqhkiG9w0BAQEFAAOBjQAw
gYkCgYEA9OfkRSFSmOvmt6mj1WMhxhQqzajqf2ypeaQYD4WH6QoSyGp0QsoDL0hW
1TWgPDztTmWXnbj7lf2sF7N1B4KIUkRsTXgKIGZI7denDVNXcxonzZ57B9qX695o
b8htc23TnexOyX07KCcq6V4FLVkihmjiJwYmt5z64pPWU6u0c+0CAwEAATANBgkq
hkiG9w0BAQQFAAOBgQDKrZQoQg9aO08iJjVqq+5hyP+lT9oa5RMm6v6ZR9b0hmNO
rpqhNmX75JnrNT+Ej7TwbLqbvj9R1T4RGx4vf65SRKUXFLlN/X56jsIILHVmwH56
q5DUX/r3hARTZMvap9CVPQa191/PnbZMulV5AZs2/5VSNg9WyiZH3gI/mZGfrg==
-----END CERTIFICATE-----
-----BEGIN RSA PRIVATE KEY-----
MIICXAIBAAKBgQD05+RFIVKY6+a3qaPVYyHGFCrNqOp/bKl5pBgPhYfpChLIanRC
ygMvSFbVNaA8PO1OZZeduPuV/awXs3UHgohSRGxNeAogZkjt16cNU1dzGifNnnsH
2pfr3mhvyG1zbdOd7E7JfTsoJyrpXgUtWSKGaOInBia3nPrik9ZTq7Rz7QIDAQAB
AoGALBxIRRtHYTu8BoCLfbepMaAYRYqTEfhkXgBsRP9sB1FFKMvjvNPd1vpUiXpr
Le5bX690q3fR+KYEBRDRl1SvcKenf4TZ5BdzyI2WA67PoazHCc5eaKnJRLSA0U0p
7iDERV8ftn2ORLzi15RlN+TjamWqueF8hQZIkj8T/llaMhECQQD6gUZMGVf7ti6H
bXpRVK5FuFhkYD8SVEA2GzN/mgvUuXoSHplyj5ESD2JxYQ8vVyw2prrWQQtQQCOV
bqAlxCtfAkEA+kcsuhf5OkGMiOdk7PID+aLCDqNZpqZsz9OoxB1UzS/eNHjDOrak
+xdwjzGZ6QHCnrt5zWIxI+wYcN3pMUIwMwJAJRiJuXEzV0IWR9XNfEfG+uoepNaf
4G37iEek66t7PwgsbIx9erqJ6BvBHzsZTZBiKsGr/1hofXzSCCn2q0EOjwJALjVd
6K3scfkQPWabl7PHUBvgwFsgfkhT5rspeawAsDGaUQ3K3dhC9akKOyXpSL/ucugi
QO1ULVG14YDXQST7SQJBAJ/YAsYdXa7JHSpiXG3O7Xpkw4V26te82ah31nXGFRHf
AVbHNhA7nHvPVFHT9V5uGRR2Rmfzd9HceuKW2Qr+5Cw=
-----END RSA PRIVATE KEY-----
